target datalayout = "e-m:e-p270:32:32-p271:32:32-p272:64:64-i64:64-i128:128-f80:128-n8:16:32:64-S128"
target triple = "x86_64-unknown-linux-gnu"

%"class.std::chrono::time_point" = type { %"class.std::chrono::duration" }
%"class.std::chrono::duration" = type { i64 }
%"class.proxygen::WheelTimerInstance" = type { ptr, %"class.std::chrono::duration.6" }
%"class.std::chrono::duration.6" = type { i64 }
%"class.proxygen::HTTPSessionBase" = type <{ %"class.wangle::ManagedConnection", ptr, ptr, %"struct.wangle::TransportInfo", %"class.proxygen::FilterChain", %"class.proxygen::HTTP2PriorityQueue", %"class.folly::SocketAddress", %"class.folly::SocketAddress", %"class.folly::Optional.36", i8, [7 x i8], %"class.std::unique_ptr.38", %"struct.std::array.46", ptr, %"class.std::chrono::time_point", %"class.std::chrono::duration.47", i32, i32, i32, i32, i32, i32, i64, i64, i32, i8, i8, [2 x i8] }>
%"class.wangle::ManagedConnection" = type { %"class.folly::HHWheelTimerBase<std::chrono::duration<long, std::ratio<1, 1000>>>::Callback", %"class.folly::DelayedDestruction.base", i32, ptr, %"class.wangle::ConnectionAgeTimeout", %"class.folly::Optional", %"class.std::chrono::time_point", %"class.boost::intrusive::list_member_hook" }
%"class.folly::HHWheelTimerBase<std::chrono::duration<long, std::ratio<1, 1000>>>::Callback" = type { ptr, %"class.boost::intrusive::list_base_hook", ptr, %"class.std::chrono::time_point", i32, %"class.std::shared_ptr" }
%"class.boost::intrusive::list_base_hook" = type { %"class.boost::intrusive::generic_hook" }
%"class.boost::intrusive::generic_hook" = type { %"struct.boost::intrusive::node_holder" }
%"struct.boost::intrusive::node_holder" = type { %"struct.boost::intrusive::list_node" }
%"struct.boost::intrusive::list_node" = type { ptr, ptr }
%"class.std::shared_ptr" = type { %"class.std::__shared_ptr" }
%"class.std::__shared_ptr" = type { ptr, %"class.std::__shared_count" }
%"class.std::__shared_count" = type { ptr }
%"class.folly::DelayedDestruction.base" = type { %"class.folly::DelayedDestructionBase.base", i8 }
%"class.folly::DelayedDestructionBase.base" = type <{ ptr, i32 }>
%"class.wangle::ConnectionAgeTimeout" = type { %"class.folly::HHWheelTimerBase<std::chrono::duration<long, std::ratio<1, 1000>>>::Callback", ptr }
%"class.folly::Optional" = type { %"struct.folly::Optional<std::chrono::time_point<std::chrono::_V2::steady_clock, std::chrono::duration<long, std::ratio<1, 1000000000>>>>::StorageTriviallyDestructible" }
%"struct.folly::Optional<std::chrono::time_point<std::chrono::_V2::steady_clock, std::chrono::duration<long, std::ratio<1, 1000000000>>>>::StorageTriviallyDestructible" = type <{ %union.anon, i8, [7 x i8] }>
%union.anon = type { %"class.std::chrono::time_point" }
%"class.boost::intrusive::list_member_hook" = type { %"class.boost::intrusive::generic_hook.2" }
%"class.boost::intrusive::generic_hook.2" = type { %"struct.boost::intrusive::list_node" }
%"struct.wangle::TransportInfo" = type { %"class.std::chrono::time_point", %"class.std::chrono::time_point", %"class.std::chrono::duration.4", i64, i64, i64, i64, i64, i64, i64, i64, i64, %"class.std::__cxx11::basic_string", i32, %struct.tcp_info, %"class.std::chrono::duration.6", %"class.std::chrono::duration.6", %"class.std::shared_ptr.7", %"class.std::shared_ptr.7", %"class.std::shared_ptr.7", %"class.std::shared_ptr.7", %"class.std::shared_ptr.7", %"class.std::shared_ptr.7", %"class.std::shared_ptr.7", %"class.std::shared_ptr.7", %"class.std::shared_ptr.7", %"class.std::shared_ptr.7", %"class.std::shared_ptr.7", %"class.std::shared_ptr.7", %"class.std::shared_ptr.10", i64, i64, i64, %"class.std::shared_ptr.13", %"class.std::shared_ptr.13", %"class.std::shared_ptr.13", i32, i32, i32, %"class.std::__cxx11::basic_string", i16, %"class.std::shared_ptr.7", i16, i8, i32, i8, i8, %"class.std::__cxx11::basic_string", %"class.std::shared_ptr.16", %"class.std::shared_ptr.7", %"class.std::shared_ptr.7", i8, %"class.folly::Optional.19", %"class.std::__cxx11::basic_string" }
%"class.std::chrono::duration.4" = type { i64 }
%struct.tcp_info = type { i8, i8, i8, i8, i8, i8, i8, i32, i32, i32, i32, i32, i32, i32, i32, i32, i32, i32, i32, i32, i32, i32, i32, i32, i32, i32, i32, i32, i32, i32, i32 }
%"class.std::shared_ptr.10" = type { %"class.std::__shared_ptr.11" }
%"class.std::__shared_ptr.11" = type { ptr, %"class.std::__shared_count" }
%"class.std::shared_ptr.13" = type { %"class.std::__shared_ptr.14" }
%"class.std::__shared_ptr.14" = type { ptr, %"class.std::__shared_count" }
%"class.std::shared_ptr.16" = type { %"class.std::__shared_ptr.17" }
%"class.std::__shared_ptr.17" = type { ptr, %"class.std::__shared_count" }
%"class.std::shared_ptr.7" = type { %"class.std::__shared_ptr.8" }
%"class.std::__shared_ptr.8" = type { ptr, %"class.std::__shared_count" }
%"class.folly::Optional.19" = type { %"struct.folly::Optional<unsigned char>::StorageTriviallyDestructible" }
%"struct.folly::Optional<unsigned char>::StorageTriviallyDestructible" = type { %union.anon.20, i8 }
%union.anon.20 = type { i8 }
%"class.std::__cxx11::basic_string" = type { %"struct.std::__cxx11::basic_string<char>::_Alloc_hider", i64, %union.anon.5 }
%"struct.std::__cxx11::basic_string<char>::_Alloc_hider" = type { ptr }
%union.anon.5 = type { i64, [8 x i8] }
%"class.proxygen::FilterChain" = type { %"class.proxygen::PassThroughHTTPCodecFilter", ptr }
%"class.proxygen::PassThroughHTTPCodecFilter" = type { %"class.proxygen::GenericFilter" }
%"class.proxygen::GenericFilter" = type { %"class.proxygen::HTTPCodec", %"class.proxygen::HTTPCodec::Callback", i8, i8, ptr, ptr, ptr, ptr, ptr, ptr }
%"class.proxygen::HTTPCodec" = type { ptr }
%"class.proxygen::HTTPCodec::Callback" = type { ptr }
%"class.proxygen::HTTP2PriorityQueue" = type { %"class.proxygen::HTTP2PriorityQueueBase", %"class.folly::F14FastMap", %"class.proxygen::HTTP2PriorityQueue::Node", i32, i64, i32, i32, %"class.folly::Optional.32", i8, %"class.proxygen::WheelTimerInstance", ptr }
%"class.proxygen::HTTP2PriorityQueueBase" = type { %"class.proxygen::HTTPCodec::PriorityQueue", i64 }
%"class.proxygen::HTTPCodec::PriorityQueue" = type { ptr }
%"class.folly::F14FastMap" = type { %"class.folly::F14ValueMap" }
%"class.folly::F14ValueMap" = type { %"class.folly::f14::detail::F14BasicMap" }
%"class.folly::f14::detail::F14BasicMap" = type { %"class.folly::f14::detail::F14Table" }
%"class.folly::f14::detail::F14Table" = type { ptr, %"struct.folly::f14::detail::SizeAndChunkShiftAndPackedBegin" }
%"struct.folly::f14::detail::SizeAndChunkShiftAndPackedBegin" = type { %"struct.folly::f14::detail::PackedSizeAndChunkShift", %"class.folly::f14::detail::PackedChunkItemPtr" }
%"struct.folly::f14::detail::PackedSizeAndChunkShift" = type { i64 }
%"class.folly::f14::detail::PackedChunkItemPtr" = type { i64 }
%"class.proxygen::HTTP2PriorityQueue::Node" = type { %"class.proxygen::HTTP2PriorityQueueBase::BaseNode", %"class.folly::HHWheelTimerBase<std::chrono::duration<long, std::ratio<1, 1000>>>::Callback", ptr, ptr, i64, i16, ptr, i8, i8, i64, i64, %"class.std::__cxx11::list", %"struct.std::_List_iterator", %"class.boost::intrusive::list_member_hook.29", %"class.boost::intrusive::list" }
%"class.proxygen::HTTP2PriorityQueueBase::BaseNode" = type { ptr }
%"class.std::__cxx11::list" = type { %"class.std::__cxx11::_List_base" }
%"class.std::__cxx11::_List_base" = type { %"struct.std::__cxx11::_List_base<std::unique_ptr<proxygen::HTTP2PriorityQueue::Node>, std::allocator<std::unique_ptr<proxygen::HTTP2PriorityQueue::Node>>>::_List_impl" }
%"struct.std::__cxx11::_List_base<std::unique_ptr<proxygen::HTTP2PriorityQueue::Node>, std::allocator<std::unique_ptr<proxygen::HTTP2PriorityQueue::Node>>>::_List_impl" = type { %"struct.std::__detail::_List_node_header" }
%"struct.std::__detail::_List_node_header" = type { %"struct.std::__detail::_List_node_base", i64 }
%"struct.std::__detail::_List_node_base" = type { ptr, ptr }
%"struct.std::_List_iterator" = type { ptr }
%"class.boost::intrusive::list_member_hook.29" = type { %"class.boost::intrusive::generic_hook.30" }
%"class.boost::intrusive::generic_hook.30" = type { %"struct.boost::intrusive::list_node" }
%"class.boost::intrusive::list" = type { %"class.boost::intrusive::list_impl" }
%"class.boost::intrusive::list_impl" = type { %"struct.boost::intrusive::list_impl<boost::intrusive::mhtraits<proxygen::HTTP2PriorityQueue::Node, boost::intrusive::list_member_hook<boost::intrusive::link_mode<boost::intrusive::auto_unlink>>, &proxygen::HTTP2PriorityQueue::Node::enqueuedHook_>, unsigned long, false, void>::data_t" }
%"struct.boost::intrusive::list_impl<boost::intrusive::mhtraits<proxygen::HTTP2PriorityQueue::Node, boost::intrusive::list_member_hook<boost::intrusive::link_mode<boost::intrusive::auto_unlink>>, &proxygen::HTTP2PriorityQueue::Node::enqueuedHook_>, unsigned long, false, void>::data_t" = type { %"struct.boost::intrusive::list_impl<boost::intrusive::mhtraits<proxygen::HTTP2PriorityQueue::Node, boost::intrusive::list_member_hook<boost::intrusive::link_mode<boost::intrusive::auto_unlink>>, &proxygen::HTTP2PriorityQueue::Node::enqueuedHook_>, unsigned long, false, void>::root_plus_size" }
%"struct.boost::intrusive::list_impl<boost::intrusive::mhtraits<proxygen::HTTP2PriorityQueue::Node, boost::intrusive::list_member_hook<boost::intrusive::link_mode<boost::intrusive::auto_unlink>>, &proxygen::HTTP2PriorityQueue::Node::enqueuedHook_>, unsigned long, false, void>::root_plus_size" = type { %"struct.boost::intrusive::detail::default_header_holder" }
%"struct.boost::intrusive::detail::default_header_holder" = type { %"struct.boost::intrusive::list_node" }
%"class.folly::Optional.32" = type { %"struct.folly::Optional<unsigned long>::StorageTriviallyDestructible" }
%"struct.folly::Optional<unsigned long>::StorageTriviallyDestructible" = type <{ %union.anon.33, i8, [7 x i8] }>
%union.anon.33 = type { i64 }
%"class.folly::SocketAddress" = type <{ %"union.folly::SocketAddress::AddrStorage", i16, i8, [5 x i8] }>
%"union.folly::SocketAddress::AddrStorage" = type { %"struct.folly::SocketAddress::ExternalUnixAddr", [8 x i8] }
%"struct.folly::SocketAddress::ExternalUnixAddr" = type { ptr, i32 }
%"class.folly::Optional.36" = type { %"struct.folly::Optional<std::__cxx11::basic_string<char>>::StorageNonTriviallyDestructible" }
%"struct.folly::Optional<std::__cxx11::basic_string<char>>::StorageNonTriviallyDestructible" = type <{ %union.anon.37, i8, [7 x i8] }>
%union.anon.37 = type { %"class.std::__cxx11::basic_string" }
%"class.std::unique_ptr.38" = type { %"struct.std::__uniq_ptr_data.39" }
%"struct.std::__uniq_ptr_data.39" = type { %"class.std::__uniq_ptr_impl.40" }
%"class.std::__uniq_ptr_impl.40" = type { %"class.std::tuple.41" }
%"class.std::tuple.41" = type { %"struct.std::_Tuple_impl.42" }
%"struct.std::_Tuple_impl.42" = type { %"struct.std::_Head_base.45" }
%"struct.std::_Head_base.45" = type { ptr }
%"struct.std::array.46" = type { [4 x ptr] }
%"class.std::chrono::duration.47" = type { i64 }
%"class.google::LogMessageFatal" = type { %"class.google::LogMessage" }
%"class.google::LogMessage" = type { ptr, ptr, %"struct.google::LogMessageTime" }
%"struct.google::LogMessageTime" = type { %struct.tm, i64, i32, i64 }
%struct.tm = type { i32, i32, i32, i32, i32, i32, i32, i32, i32, i64, ptr }
%"class.google::LogMessageVoidify" = type { i8 }

@.str.1 = private unnamed_addr constant [141 x i8] c"generated/home/dtcxzyw/WorkSpace/Projects/compilers/llvm-opt-benchmark/bench/proxygen/proxygen/proxygen/lib/http/session/HTTPSessionBase.cpp\00", align 1
@.str.14 = private unnamed_addr constant [67 x i8] c"Check failed: delta >= 0 || uint64_t(-delta) <= pendingWriteSize_ \00", align 1

; Function Attrs: mustprogress nounwind uwtable
define linkonce_odr void @_ZN6google17LogMessageVoidifyanERSo(ptr noundef nonnull align 1 dereferenceable(1) %this, ptr noundef nonnull align 8 dereferenceable(8) %0) #5 comdat align 2 {
entry:
  %this.addr = alloca ptr, align 8
  %.addr = alloca ptr, align 8
  store ptr %this, ptr %this.addr, align 8
  store ptr %0, ptr %.addr, align 8
  ret void
}

; Function Attrs: mustprogress nounwind uwtable
define linkonce_odr void @_ZN6google17LogMessageVoidifyC2Ev(ptr noundef nonnull align 1 dereferenceable(1) %this) unnamed_addr #5 comdat align 2 {
entry:
  %this.addr = alloca ptr, align 8
  store ptr %this, ptr %this.addr, align 8
  ret void
}

; Function Attrs: mustprogress uwtable
define void @_ZN8proxygen15HTTPSessionBase18updateWriteBufSizeEl(ptr noundef nonnull align 8 dereferenceable(1582) %this, i64 noundef %delta) #4 align 2 personality ptr @__gxx_personality_v0 {
entry:
  %this.addr = alloca ptr, align 8
  %delta.addr = alloca i64, align 8
  %ref.tmp = alloca %"class.google::LogMessageVoidify", align 1
  %ref.tmp4 = alloca %"class.google::LogMessageFatal", align 8
  %cleanup.cond = alloca i1, align 1
  %exn.slot = alloca ptr, align 8
  %ehselector.slot = alloca i32, align 4
  store ptr %this, ptr %this.addr, align 8
  store i64 %delta, ptr %delta.addr, align 8
  %this1 = load ptr, ptr %this.addr, align 8
  %pendingWriteSizeDelta_ = getelementptr inbounds %"class.proxygen::HTTPSessionBase", ptr %this1, i32 0, i32 23
  %0 = load i64, ptr %pendingWriteSizeDelta_, align 8
  %1 = load i64, ptr %delta.addr, align 8
  %add = add nsw i64 %1, %0
  store i64 %add, ptr %delta.addr, align 8
  %pendingWriteSizeDelta_2 = getelementptr inbounds %"class.proxygen::HTTPSessionBase", ptr %this1, i32 0, i32 23
  store i64 0, ptr %pendingWriteSizeDelta_2, align 8
  br label %while.cond

while.cond:                                       ; preds = %cleanup.done, %entry
  br i1 false, label %while.body, label %while.end

while.body:                                       ; preds = %while.cond
  %2 = load i64, ptr %delta.addr, align 8
  %cmp = icmp sge i64 %2, 0
  store i1 false, ptr %cleanup.cond, align 1
  br i1 %cmp, label %lor.end, label %lor.rhs

lor.rhs:                                          ; preds = %while.body
  %3 = load i64, ptr %delta.addr, align 8
  %sub = sub nsw i64 0, %3
  %pendingWriteSize_ = getelementptr inbounds %"class.proxygen::HTTPSessionBase", ptr %this1, i32 0, i32 22
  %4 = load i64, ptr %pendingWriteSize_, align 8
  %cmp3 = icmp ule i64 %sub, %4
  br label %lor.end

lor.end:                                          ; preds = %lor.rhs, %while.body
  %5 = phi i1 [ true, %while.body ], [ %cmp3, %lor.rhs ]
  %lnot = xor i1 %5, true
  br i1 %lnot, label %cond.false, label %cond.true

cond.true:                                        ; preds = %lor.end
  br label %cond.end

cond.false:                                       ; preds = %lor.end
  call void @_ZN6google17LogMessageVoidifyC2Ev(ptr noundef nonnull align 1 dereferenceable(1) %ref.tmp)
  call void @_ZN6google15LogMessageFatalC1EPKci(ptr noundef nonnull align 8 dereferenceable(96) %ref.tmp4, ptr noundef @.str.1, i32 noundef 186)
  store i1 true, ptr %cleanup.cond, align 1
  %call = invoke noundef nonnull align 8 dereferenceable(8) ptr @_ZN6google10LogMessage6streamEv(ptr noundef nonnull align 8 dereferenceable(96) %ref.tmp4)
          to label %invoke.cont unwind label %lpad

invoke.cont:                                      ; preds = %cond.false
  %call6 = invoke noundef nonnull align 8 dereferenceable(8) ptr @_ZStlsISt11char_traitsIcEERSt13basic_ostreamIcT_ES5_PKc(ptr noundef nonnull align 8 dereferenceable(8) %call, ptr noundef @.str.14)
          to label %invoke.cont5 unwind label %lpad

invoke.cont5:                                     ; preds = %invoke.cont
  invoke void @_ZN6google17LogMessageVoidifyanERSo(ptr noundef nonnull align 1 dereferenceable(1) %ref.tmp, ptr noundef nonnull align 8 dereferenceable(8) %call6)
          to label %invoke.cont7 unwind label %lpad

invoke.cont7:                                     ; preds = %invoke.cont5
  br label %cond.end

cond.end:                                         ; preds = %invoke.cont7, %cond.true
  %cleanup.is_active = load i1, ptr %cleanup.cond, align 1
  br i1 %cleanup.is_active, label %cleanup.action, label %cleanup.done

cleanup.action:                                   ; preds = %cond.end
  call void @_ZN6google15LogMessageFatalD1Ev(ptr noundef nonnull align 8 dereferenceable(96) %ref.tmp4) #19
  unreachable

lpad:                                             ; preds = %invoke.cont5, %invoke.cont, %cond.false
  %6 = landingpad { ptr, i32 }
          cleanup
  %7 = extractvalue { ptr, i32 } %6, 0
  store ptr %7, ptr %exn.slot, align 8
  %8 = extractvalue { ptr, i32 } %6, 1
  store i32 %8, ptr %ehselector.slot, align 4
  %cleanup.is_active8 = load i1, ptr %cleanup.cond, align 1
  br i1 %cleanup.is_active8, label %cleanup.action9, label %cleanup.done10

9:                                                ; No predecessors!
  br label %cleanup.done

cleanup.done:                                     ; preds = %9, %cond.end
  br label %while.cond, !llvm.loop !4

cleanup.action9:                                  ; preds = %lpad
  call void @_ZN6google15LogMessageFatalD1Ev(ptr noundef nonnull align 8 dereferenceable(96) %ref.tmp4) #19
  unreachable

10:                                               ; No predecessors!
  br label %cleanup.done10

cleanup.done10:                                   ; preds = %10, %lpad
  br label %eh.resume

while.end:                                        ; preds = %while.cond
  %sessionStats_ = getelementptr inbounds %"class.proxygen::HTTPSessionBase", ptr %this1, i32 0, i32 1
  %11 = load ptr, ptr %sessionStats_, align 8
  %tobool = icmp ne ptr %11, null
  br i1 %tobool, label %if.then, label %if.end

if.then:                                          ; preds = %while.end
  %sessionStats_11 = getelementptr inbounds %"class.proxygen::HTTPSessionBase", ptr %this1, i32 0, i32 1
  %12 = load ptr, ptr %sessionStats_11, align 8
  %13 = load i64, ptr %delta.addr, align 8
  %vtable = load ptr, ptr %12, align 8
  %vfn = getelementptr inbounds ptr, ptr %vtable, i64 22
  %14 = load ptr, ptr %vfn, align 8
  call void %14(ptr noundef nonnull align 8 dereferenceable(8) %12, i64 noundef %13) #3
  br label %if.end

if.end:                                           ; preds = %if.then, %while.end
  %15 = load i64, ptr %delta.addr, align 8
  %pendingWriteSize_12 = getelementptr inbounds %"class.proxygen::HTTPSessionBase", ptr %this1, i32 0, i32 22
  %16 = load i64, ptr %pendingWriteSize_12, align 8
  %add13 = add i64 %16, %15
  store i64 %add13, ptr %pendingWriteSize_12, align 8
  ret void

eh.resume:                                        ; preds = %cleanup.done10
  %exn = load ptr, ptr %exn.slot, align 8
  %sel = load i32, ptr %ehselector.slot, align 4
  %lpad.val = insertvalue { ptr, i32 } poison, ptr %exn, 0
  %lpad.val14 = insertvalue { ptr, i32 } %lpad.val, i32 %sel, 1
  resume { ptr, i32 } %lpad.val14
}

; Function Attrs: mustprogress uwtable
define void @_ZN8proxygen15HTTPSessionBase19updatePendingWritesEv(ptr noundef nonnull align 8 dereferenceable(1582) %this) #4 align 2 {
entry:
  %this.addr = alloca ptr, align 8
  store ptr %this, ptr %this.addr, align 8
  %this1 = load ptr, ptr %this.addr, align 8
  %pendingWriteSizeDelta_ = getelementptr inbounds %"class.proxygen::HTTPSessionBase", ptr %this1, i32 0, i32 23
  %0 = load i64, ptr %pendingWriteSizeDelta_, align 8
  %tobool = icmp ne i64 %0, 0
  br i1 %tobool, label %if.then, label %if.end

if.then:                                          ; preds = %entry
  call void @_ZN8proxygen15HTTPSessionBase18updateWriteBufSizeEl(ptr noundef nonnull align 8 dereferenceable(1582) %this1, i64 noundef 0)
  br label %if.end

if.end:                                           ; preds = %if.then, %entry
  ret void
}