; Function Attrs: mustprogress uwtable
define void @_ZN8proxygen15HTTPSessionBase19updatePendingWritesEv(ptr nocapture noundef nonnull align 8 dereferenceable(1582) %this) local_unnamed_addr #3 align 2 personality ptr @__gxx_personality_v0 {
entry:
  %pendingWriteSizeDelta_ = getelementptr inbounds i8, ptr %this, i64 1568
  %0 = load i64, ptr %pendingWriteSizeDelta_, align 8
  %tobool.not = icmp eq i64 %0, 0
  br i1 %tobool.not, label %if.end, label %if.then

if.then:                                          ; preds = %entry
  store i64 0, ptr %pendingWriteSizeDelta_, align 8
  %sessionStats_.i = getelementptr inbounds i8, ptr %this, i64 208
  %1 = load ptr, ptr %sessionStats_.i, align 8
  %tobool.not.i = icmp eq ptr %1, null
  br i1 %tobool.not.i, label %_ZN8proxygen15HTTPSessionBase18updateWriteBufSizeEl.exit, label %if.then.i

if.then.i:                                        ; preds = %if.then
  %vtable.i = load ptr, ptr %1, align 8
  %vfn.i = getelementptr inbounds i8, ptr %vtable.i, i64 176
  %2 = load ptr, ptr %vfn.i, align 8
  tail call void %2(ptr noundef nonnull align 8 dereferenceable(8) %1, i64 noundef %0) #21
  br label %_ZN8proxygen15HTTPSessionBase18updateWriteBufSizeEl.exit

_ZN8proxygen15HTTPSessionBase18updateWriteBufSizeEl.exit: ; preds = %if.then, %if.then.i
  %pendingWriteSize_12.i = getelementptr inbounds i8, ptr %this, i64 1560
  %3 = load i64, ptr %pendingWriteSize_12.i, align 8
  %add13.i = add i64 %3, %0
  store i64 %add13.i, ptr %pendingWriteSize_12.i, align 8
  br label %if.end

if.end:                                           ; preds = %_ZN8proxygen15HTTPSessionBase18updateWriteBufSizeEl.exit, %entry
  ret void
}